target datalayout = "e-m:e-p270:32:32-p271:32:32-p272:64:64-i64:64-i128:128-f80:128-n8:16:32:64-S128"
target triple = "x86_64-pc-linux-gnu"

%"class.doctest::String" = type { %union.anon.7 }
%union.anon.7 = type { %"struct.doctest::String::view", [8 x i8] }
%"struct.doctest::String::view" = type { ptr, i32, i32 }
%"struct.doctest::detail::MessageBuilder" = type <{ %"struct.doctest::MessageData", ptr, i8, [7 x i8] }>
%"struct.doctest::MessageData" = type { %"class.doctest::String", ptr, i32, i32 }

@_ZN7doctest6StringD1Ev = dso_local unnamed_addr alias void (ptr), ptr @_ZN7doctest6StringD2Ev

; Function Attrs: inlinehint mustprogress nounwind uwtable
define linkonce_odr dso_local void @_ZN7doctest11MessageDataD2Ev(ptr noundef nonnull align 8 dereferenceable(40) %0) unnamed_addr #4 comdat align 2 {
  %2 = alloca ptr, align 8
  store ptr %0, ptr %2, align 8, !tbaa !304
  %3 = load ptr, ptr %2, align 8
  %4 = getelementptr inbounds nuw %"struct.doctest::MessageData", ptr %3, i32 0, i32 0
  call void @_ZN7doctest6StringD1Ev(ptr noundef nonnull align 8 dereferenceable(24) %4) #7
  ret void
}

; Function Attrs: mustprogress nounwind uwtable
define dso_local void @_ZN7doctest6detail14MessageBuilderD2Ev(ptr noundef nonnull align 8 dereferenceable(49) %0) unnamed_addr #1 align 2 personality ptr @__gxx_personality_v0 {
  %2 = alloca ptr, align 8
  %3 = alloca %"class.doctest::String", align 8
  store ptr %0, ptr %2, align 8, !tbaa !295
  %4 = load ptr, ptr %2, align 8
  %5 = getelementptr inbounds nuw %"struct.doctest::detail::MessageBuilder", ptr %4, i32 0, i32 2
  %6 = load i8, ptr %5, align 8, !tbaa !297, !range !36, !noundef !37
  %7 = trunc i8 %6 to i1
  br i1 %7, label %10, label %8

8:                                                ; preds = %1
  invoke void @_ZN7doctest6detail7tlssPopEv(ptr dead_on_unwind writable sret(%"class.doctest::String") align 8 %3)
          to label %9 unwind label %11

9:                                                ; preds = %8
  call void @_ZN7doctest6StringD1Ev(ptr noundef nonnull align 8 dereferenceable(24) %3) #7
  br label %10

10:                                               ; preds = %9, %1
  call void @_ZN7doctest11MessageDataD2Ev(ptr noundef nonnull align 8 dereferenceable(40) %4) #7
  ret void

11:                                               ; preds = %8
  %12 = landingpad { ptr, i32 }
          catch ptr null
  %13 = extractvalue { ptr, i32 } %12, 0
  call void @__clang_call_terminate(ptr %13) #33
  unreachable
}