; Function Attrs: mustprogress nounwind uwtable
define dso_local void @_ZN7doctest6detail14MessageBuilderD2Ev(ptr noundef nonnull readonly align 8 captures(none) dereferenceable(49) %0) unnamed_addr #7 align 2 personality ptr @__gxx_personality_v0 {
  %2 = alloca %"class.doctest::String", align 8
  %3 = getelementptr inbounds nuw i8, ptr %0, i64 48
  %4 = load i8, ptr %3, align 8, !tbaa !312, !range !22, !noundef !23
  %5 = trunc nuw i8 %4 to i1
  br i1 %5, label %_ZN7doctest6StringD2Ev.exit, label %6

6:                                                ; preds = %1
  invoke void @_ZN7doctest6detail7tlssPopEv(ptr dead_on_unwind nonnull writable sret(%"class.doctest::String") align 8 %2)
          to label %7 unwind label %22

7:                                                ; preds = %6
  %8 = getelementptr inbounds nuw i8, ptr %2, i64 23
  %9 = load i8, ptr %8, align 1, !tbaa !38
  %10 = icmp sgt i8 %9, -1
  br i1 %10, label %_ZN7doctest6StringD2Ev.exit, label %11

11:                                               ; preds = %7
  %12 = load ptr, ptr %2, align 8, !tbaa !38
  %13 = icmp eq ptr %12, null
  br i1 %13, label %_ZN7doctest6StringD2Ev.exit, label %14

14:                                               ; preds = %11
  call void @_ZdaPv(ptr noundef nonnull %12) #48
  br label %_ZN7doctest6StringD2Ev.exit

_ZN7doctest6StringD2Ev.exit:                      ; preds = %14, %11, %7, %1
  %15 = getelementptr inbounds nuw i8, ptr %0, i64 23
  %16 = load i8, ptr %15, align 1, !tbaa !38
  %17 = icmp sgt i8 %16, -1
  br i1 %17, label %_ZN7doctest11MessageDataD2Ev.exit, label %18

18:                                               ; preds = %_ZN7doctest6StringD2Ev.exit
  %19 = load ptr, ptr %0, align 8, !tbaa !38
  %20 = icmp eq ptr %19, null
  br i1 %20, label %_ZN7doctest11MessageDataD2Ev.exit, label %21

21:                                               ; preds = %18
  call void @_ZdaPv(ptr noundef nonnull %19) #48
  br label %_ZN7doctest11MessageDataD2Ev.exit

_ZN7doctest11MessageDataD2Ev.exit:                ; preds = %_ZN7doctest6StringD2Ev.exit, %18, %21
  ret void

22:                                               ; preds = %6
  %23 = landingpad { ptr, i32 }
          catch ptr null
  %24 = extractvalue { ptr, i32 } %23, 0
  call void @__clang_call_terminate(ptr %24) #53
  unreachable
}